target datalayout = "e-m:e-p270:32:32-p271:32:32-p272:64:64-i64:64-i128:128-f80:128-n8:16:32:64-S128"
target triple = "x86_64-pc-linux-gnu"

%"class.boost::log::v2_mt_posix::attribute_value_set" = type { ptr }

; Function Attrs: mustprogress uwtable
define void @_ZN5boost3log11v2_mt_posix19attribute_value_setC2ERKS2_(ptr noundef nonnull align 8 dereferenceable(8) %0, ptr noundef nonnull align 8 dereferenceable(8) %1) unnamed_addr #0 align 2 {
  %3 = alloca ptr, align 8
  %4 = alloca ptr, align 8
  store ptr %0, ptr %3, align 8, !tbaa !3
  store ptr %1, ptr %4, align 8, !tbaa !3
  %5 = load ptr, ptr %3, align 8
  %6 = load ptr, ptr %4, align 8, !tbaa !3
  %7 = getelementptr inbounds nuw %"class.boost::log::v2_mt_posix::attribute_value_set", ptr %6, i32 0, i32 0
  %8 = load ptr, ptr %7, align 8, !tbaa !9
  %9 = icmp ne ptr %8, null
  br i1 %9, label %10, label %16

10:                                               ; preds = %2
  %11 = load ptr, ptr %4, align 8, !tbaa !3
  %12 = getelementptr inbounds nuw %"class.boost::log::v2_mt_posix::attribute_value_set", ptr %11, i32 0, i32 0
  %13 = load ptr, ptr %12, align 8, !tbaa !9
  %14 = call noundef ptr @_ZN5boost3log11v2_mt_posix19attribute_value_set14implementation4copyEPS3_(ptr noundef %13)
  %15 = getelementptr inbounds nuw %"class.boost::log::v2_mt_posix::attribute_value_set", ptr %5, i32 0, i32 0
  store ptr %14, ptr %15, align 8, !tbaa !9
  br label %18

16:                                               ; preds = %2
  %17 = getelementptr inbounds nuw %"class.boost::log::v2_mt_posix::attribute_value_set", ptr %5, i32 0, i32 0
  store ptr null, ptr %17, align 8, !tbaa !9
  br label %18

18:                                               ; preds = %16, %10
  ret void
}