; Function Attrs: mustprogress uwtable
define void @_ZN5boost3log11v2_mt_posix19attribute_value_setC2ERKS2_(ptr nocapture noundef nonnull writeonly align 8 dereferenceable(8) %0, ptr nocapture noundef nonnull readonly align 8 dereferenceable(8) %1) unnamed_addr #0 align 2 {
  %3 = load ptr, ptr %1, align 8, !tbaa !21
  %.not = icmp eq ptr %3, null
  br i1 %.not, label %6, label %4

4:                                                ; preds = %2
  %5 = tail call noundef ptr @_ZN5boost3log11v2_mt_posix19attribute_value_set14implementation4copyEPS3_(ptr noundef nonnull %3)
  br label %6

6:                                                ; preds = %2, %4
  %storemerge = phi ptr [ %5, %4 ], [ null, %2 ]
  store ptr %storemerge, ptr %0, align 8, !tbaa !21
  ret void
}